Certificate:
    Data:
        Version: 3 (0x2)
        Serial Number: 2 (0x2)
        Signature Algorithm: sha256WithRSAEncryption
        Issuer: C=CN, ST=Shanghai, L=XH, O=WJY, OU=iThink, CN=organization.com/emailAddress=wjy_sys@vvvpure.com
        Validity
            Not Before: Dec 24 13:30:22 2020 GMT
            Not After : Dec 24 13:30:22 2025 GMT
        Subject: C=CN, ST=Shanghai, L=XH, O=WJY, OU=iThink, CN=vvvpure.com/emailAddress=wjy_sys@vvvpure.com
        Subject Public Key Info:
            Public Key Algorithm: rsaEncryption
                RSA Public-Key: (2048 bit)
                Modulus:
                    00:cf:d2:42:77:2f:72:ae:af:c0:c4:7a:59:0e:c9:
                    90:ef:16:e0:f0:35:d3:13:e1:a5:5e:46:b0:4d:0b:
                    5e:14:92:c1:36:55:1a:6a:7c:48:c9:9c:f9:59:f1:
                    e9:0e:bb:e5:c1:16:7e:9a:dd:0f:e5:88:33:f6:95:
                    ec:6d:27:b1:47:9c:98:74:1a:33:41:5b:74:a4:7c:
                    9a:0a:fb:27:50:a4:60:25:7f:41:f9:f8:70:15:ad:
                    55:f6:6f:e4:bf:30:5d:f7:d0:96:fe:6c:55:f5:35:
                    9f:af:54:a0:40:da:23:94:82:61:77:8d:f9:83:27:
                    99:b6:cc:5b:c0:31:76:79:ed:f8:ba:66:26:20:fd:
                    4a:f3:64:af:5c:78:3c:a8:fa:b0:02:cf:67:a0:84:
                    6c:f8:58:ba:60:d2:85:61:15:11:52:ce:7d:bb:d6:
                    71:ba:f0:9e:4a:02:74:f6:33:39:19:c8:50:95:fb:
                    bf:d5:6b:8f:03:a7:0f:86:86:d6:17:f0:54:b6:6e:
                    e0:a8:c0:0f:1a:ac:93:92:33:91:60:53:d9:19:6b:
                    7f:bc:7f:46:93:47:3e:e8:9d:89:9d:d6:3d:95:ac:
                    75:62:2d:7a:de:93:7d:a2:4c:af:ab:1e:b3:1e:b6:
                    72:fa:cc:e1:c2:0b:ae:84:93:07:ea:c8:2b:42:6c:
                    44:1d
                Exponent: 65537 (0x10001)
        X509v3 extensions:
            X509v3 Basic Constraints: 
                CA:FALSE
            Netscape Comment: 
                OpenSSL Generated Certificate
            X509v3 Subject Key Identifier: 
                BF:01:EA:1D:F9:00:1B:B6:E6:1A:5E:62:68:51:F5:FA:51:FB:A8:1A
            X509v3 Authority Key Identifier: 
                keyid:DD:46:08:87:EF:27:4C:FE:0D:5A:F7:D5:0D:34:76:1B:53:52:47:AA

    Signature Algorithm: sha256WithRSAEncryption
         3e:f4:97:74:cf:a7:b7:1c:d3:98:d3:92:f9:71:49:96:11:1a:
         16:02:3d:18:58:c8:61:25:51:7d:1a:4a:d3:39:57:40:fa:10:
         b7:f6:8e:58:1b:a8:d1:f5:a6:1b:ca:33:bd:a0:64:92:19:33:
         a8:ff:ef:4a:27:fc:0a:4e:03:46:cf:59:b8:cf:cd:60:a4:2e:
         8a:82:7d:86:24:ba:08:dc:a5:ac:50:66:cb:38:eb:01:70:f2:
         77:8b:10:69:60:bb:c1:f2:4b:75:fd:3d:7a:34:4e:54:5d:4d:
         30:8f:0d:ab:76:f0:99:7b:7a:7e:dc:38:6b:43:96:08:3b:08:
         ac:6c:16:34:a1:27:a7:8f:c3:0a:54:b6:58:da:d4:35:4c:94:
         f2:7b:30:f4:d2:88:9d:d8:09:89:ab:09:ad:f5:3e:a0:96:07:
         71:96:11:a2:75:77:dc:6c:de:6c:b1:e2:d2:ed:0a:a5:4b:7c:
         61:06:20:b1:d9:3a:ee:37:1d:63:f1:11:4a:32:d7:05:4f:de:
         2f:62:7d:b6:5a:7b:ca:38:1e:23:68:50:d1:b3:b8:32:de:67:
         06:d3:6e:c6:c1:6d:1f:69:1d:7a:47:34:a0:8a:c4:73:96:68:
         04:7e:b2:74:df:21:4c:c2:09:b5:24:8b:54:6a:3a:4c:3a:13:
         84:14:f7:57
-----BEGIN CERTIFICATE-----
MIIECTCCAvGgAwIBAgIBAjANBgkqhkiG9w0BAQsFADCBizELMAkGA1UEBhMCQ04x
ETAPBgNVBAgMCFNoYW5naGFpMQswCQYDVQQHDAJYSDEMMAoGA1UECgwDV0pZMQ8w
DQYDVQQLDAZpVGhpbmsxGTAXBgNVBAMMEG9yZ2FuaXphdGlvbi5jb20xIjAgBgkq
hkiG9w0BCQEWE3dqeV9zeXNAdnZ2cHVyZS5jb20wHhcNMjAxMjI0MTMzMDIyWhcN
MjUxMjI0MTMzMDIyWjCBhjELMAkGA1UEBhMCQ04xETAPBgNVBAgMCFNoYW5naGFp
MQswCQYDVQQHDAJYSDEMMAoGA1UECgwDV0pZMQ8wDQYDVQQLDAZpVGhpbmsxFDAS
BgNVBAMMC3Z2dnB1cmUuY29tMSIwIAYJKoZIhvcNAQkBFhN3anlfc3lzQHZ2dnB1
cmUuY29tMIIBIjANBgkqhkiG9w0BAQEFAAOCAQ8AMIIBCgKCAQEAz9JCdy9yrq/A
xHpZDsmQ7xbg8DXTE+GlXkawTQteFJLBNlUaanxIyZz5WfHpDrvlwRZ+mt0P5Ygz
9pXsbSexR5yYdBozQVt0pHyaCvsnUKRgJX9B+fhwFa1V9m/kvzBd99CW/mxV9TWf
r1SgQNojlIJhd435gyeZtsxbwDF2ee34umYmIP1K82SvXHg8qPqwAs9noIRs+Fi6
YNKFYRURUs59u9ZxuvCeSgJ09jM5GchQlfu/1WuPA6cPhobWF/BUtm7gqMAPGqyT
kjORYFPZGWt/vH9Gk0c+6J2JndY9lax1Yi163pN9okyvqx6zHrZy+szhwguuhJMH
6sgrQmxEHQIDAQABo3sweTAJBgNVHRMEAjAAMCwGCWCGSAGG+EIBDQQfFh1PcGVu
U1NMIEdlbmVyYXRlZCBDZXJ0aWZpY2F0ZTAdBgNVHQ4EFgQUvwHqHfkAG7bmGl5i
aFH1+lH7qBowHwYDVR0jBBgwFoAU3UYIh+8nTP4NWvfVDTR2G1NSR6owDQYJKoZI
hvcNAQELBQADggEBAD70l3TPp7cc05jTkvlxSZYRGhYCPRhYyGElUX0aStM5V0D6
ELf2jlgbqNH1phvKM72gZJIZM6j/70on/ApOA0bPWbjPzWCkLoqCfYYkugjcpaxQ
Zss46wFw8neLEGlgu8HyS3X9PXo0TlRdTTCPDat28Jl7en7cOGtDlgg7CKxsFjSh
J6ePwwpUtlja1DVMlPJ7MPTSiJ3YCYmrCa31PqCWB3GWEaJ1d9xs3myx4tLtCqVL
fGEGILHZOu43HWPxEUoy1wVP3i9ifbZae8o4HiNoUNGzuDLeZwbTbsbBbR9pHXpH
NKCKxHOWaAR+snTfIUzCCbUki1RqOkw6E4QU91c=
-----END CERTIFICATE-----
